target datalayout = "e-m:e-p270:32:32-p271:32:32-p272:64:64-i64:64-i128:128-f80:128-n8:16:32:64-S128"
target triple = "x86_64-pc-linux-gnu"

%"struct.boost::wave::cpplexer::re2clex::tag_aq_queuetype" = type { i64, i64, i64, i64, ptr }

; Function Attrs: mustprogress nounwind uwtable
define hidden noundef i32 @_ZN5boost4wave8cpplexer7re2clex7aq_growEPNS2_16tag_aq_queuetypeE(ptr noundef %0) #0 {
  %2 = alloca i32, align 4
  %3 = alloca ptr, align 8
  %4 = alloca i64, align 8
  %5 = alloca ptr, align 8
  %6 = alloca i32, align 4
  store ptr %0, ptr %3, align 8, !tbaa !3
  call void @llvm.lifetime.start.p0(i64 8, ptr %4) #7
  %7 = load ptr, ptr %3, align 8, !tbaa !3
  %8 = getelementptr inbounds nuw %"struct.boost::wave::cpplexer::re2clex::tag_aq_queuetype", ptr %7, i32 0, i32 3
  %9 = load i64, ptr %8, align 8, !tbaa !7
  %10 = shl i64 %9, 1
  store i64 %10, ptr %4, align 8, !tbaa !10
  call void @llvm.lifetime.start.p0(i64 8, ptr %5) #7
  %11 = load ptr, ptr %3, align 8, !tbaa !3
  %12 = getelementptr inbounds nuw %"struct.boost::wave::cpplexer::re2clex::tag_aq_queuetype", ptr %11, i32 0, i32 4
  %13 = load ptr, ptr %12, align 8, !tbaa !11
  %14 = load i64, ptr %4, align 8, !tbaa !10
  %15 = mul i64 %14, 8
  %16 = call ptr @realloc(ptr noundef %13, i64 noundef %15) #8
  store ptr %16, ptr %5, align 8, !tbaa !3
  %17 = load ptr, ptr %5, align 8, !tbaa !3
  %18 = icmp ne ptr %17, null
  br i1 %18, label %20, label %19

19:                                               ; preds = %1
  store i32 0, ptr %2, align 4
  store i32 1, ptr %6, align 4
  br label %58

20:                                               ; preds = %1
  %21 = load ptr, ptr %5, align 8, !tbaa !3
  %22 = load ptr, ptr %3, align 8, !tbaa !3
  %23 = getelementptr inbounds nuw %"struct.boost::wave::cpplexer::re2clex::tag_aq_queuetype", ptr %22, i32 0, i32 4
  store ptr %21, ptr %23, align 8, !tbaa !11
  %24 = load ptr, ptr %3, align 8, !tbaa !3
  %25 = getelementptr inbounds nuw %"struct.boost::wave::cpplexer::re2clex::tag_aq_queuetype", ptr %24, i32 0, i32 1
  %26 = load i64, ptr %25, align 8, !tbaa !12
  %27 = load ptr, ptr %3, align 8, !tbaa !3
  %28 = getelementptr inbounds nuw %"struct.boost::wave::cpplexer::re2clex::tag_aq_queuetype", ptr %27, i32 0, i32 0
  %29 = load i64, ptr %28, align 8, !tbaa !13
  %30 = icmp ule i64 %26, %29
  br i1 %30, label %31, label %54

31:                                               ; preds = %20
  %32 = load ptr, ptr %3, align 8, !tbaa !3
  %33 = getelementptr inbounds nuw %"struct.boost::wave::cpplexer::re2clex::tag_aq_queuetype", ptr %32, i32 0, i32 4
  %34 = load ptr, ptr %33, align 8, !tbaa !11
  %35 = load ptr, ptr %3, align 8, !tbaa !3
  %36 = getelementptr inbounds nuw %"struct.boost::wave::cpplexer::re2clex::tag_aq_queuetype", ptr %35, i32 0, i32 3
  %37 = load i64, ptr %36, align 8, !tbaa !7
  %38 = getelementptr inbounds nuw i64, ptr %34, i64 %37
  %39 = load ptr, ptr %3, align 8, !tbaa !3
  %40 = getelementptr inbounds nuw %"struct.boost::wave::cpplexer::re2clex::tag_aq_queuetype", ptr %39, i32 0, i32 4
  %41 = load ptr, ptr %40, align 8, !tbaa !11
  %42 = load ptr, ptr %3, align 8, !tbaa !3
  %43 = getelementptr inbounds nuw %"struct.boost::wave::cpplexer::re2clex::tag_aq_queuetype", ptr %42, i32 0, i32 1
  %44 = load i64, ptr %43, align 8, !tbaa !12
  %45 = add i64 %44, 1
  %46 = mul i64 %45, 8
  call void @llvm.memcpy.p0.p0.i64(ptr align 8 %38, ptr align 8 %41, i64 %46, i1 false)
  %47 = load ptr, ptr %3, align 8, !tbaa !3
  %48 = getelementptr inbounds nuw %"struct.boost::wave::cpplexer::re2clex::tag_aq_queuetype", ptr %47, i32 0, i32 3
  %49 = load i64, ptr %48, align 8, !tbaa !7
  %50 = load ptr, ptr %3, align 8, !tbaa !3
  %51 = getelementptr inbounds nuw %"struct.boost::wave::cpplexer::re2clex::tag_aq_queuetype", ptr %50, i32 0, i32 1
  %52 = load i64, ptr %51, align 8, !tbaa !12
  %53 = add i64 %52, %49
  store i64 %53, ptr %51, align 8, !tbaa !12
  br label %54

54:                                               ; preds = %31, %20
  %55 = load i64, ptr %4, align 8, !tbaa !10
  %56 = load ptr, ptr %3, align 8, !tbaa !3
  %57 = getelementptr inbounds nuw %"struct.boost::wave::cpplexer::re2clex::tag_aq_queuetype", ptr %56, i32 0, i32 3
  store i64 %55, ptr %57, align 8, !tbaa !7
  store i32 1, ptr %2, align 4
  store i32 1, ptr %6, align 4
  br label %58

58:                                               ; preds = %54, %19
  call void @llvm.lifetime.end.p0(i64 8, ptr %5) #7
  call void @llvm.lifetime.end.p0(i64 8, ptr %4) #7
  %59 = load i32, ptr %2, align 4
  ret i32 %59
}

; Function Attrs: mustprogress nounwind uwtable
define noundef i32 @_ZN5boost4wave8cpplexer7re2clex10aq_enqueueEPNS2_16tag_aq_queuetypeEm(ptr noundef %0, i64 noundef %1) #0 {
  %3 = alloca i32, align 4
  %4 = alloca ptr, align 8
  %5 = alloca i64, align 8
  store ptr %0, ptr %4, align 8, !tbaa !3
  store i64 %1, ptr %5, align 8, !tbaa !10
  %6 = load ptr, ptr %4, align 8, !tbaa !3
  %7 = getelementptr inbounds nuw %"struct.boost::wave::cpplexer::re2clex::tag_aq_queuetype", ptr %6, i32 0, i32 2
  %8 = load i64, ptr %7, align 8, !tbaa !14
  %9 = load ptr, ptr %4, align 8, !tbaa !3
  %10 = getelementptr inbounds nuw %"struct.boost::wave::cpplexer::re2clex::tag_aq_queuetype", ptr %9, i32 0, i32 3
  %11 = load i64, ptr %10, align 8, !tbaa !7
  %12 = icmp eq i64 %8, %11
  br i1 %12, label %13, label %19

13:                                               ; preds = %2
  %14 = load ptr, ptr %4, align 8, !tbaa !3
  %15 = call noundef i32 @_ZN5boost4wave8cpplexer7re2clex7aq_growEPNS2_16tag_aq_queuetypeE(ptr noundef %14)
  %16 = icmp ne i32 %15, 0
  br i1 %16, label %18, label %17

17:                                               ; preds = %13
  store i32 0, ptr %3, align 4
  br label %47

18:                                               ; preds = %13
  br label %19

19:                                               ; preds = %18, %2
  %20 = load ptr, ptr %4, align 8, !tbaa !3
  %21 = getelementptr inbounds nuw %"struct.boost::wave::cpplexer::re2clex::tag_aq_queuetype", ptr %20, i32 0, i32 1
  %22 = load i64, ptr %21, align 8, !tbaa !12
  %23 = add i64 %22, 1
  store i64 %23, ptr %21, align 8, !tbaa !12
  %24 = load ptr, ptr %4, align 8, !tbaa !3
  %25 = getelementptr inbounds nuw %"struct.boost::wave::cpplexer::re2clex::tag_aq_queuetype", ptr %24, i32 0, i32 1
  %26 = load i64, ptr %25, align 8, !tbaa !12
  %27 = load ptr, ptr %4, align 8, !tbaa !3
  %28 = getelementptr inbounds nuw %"struct.boost::wave::cpplexer::re2clex::tag_aq_queuetype", ptr %27, i32 0, i32 3
  %29 = load i64, ptr %28, align 8, !tbaa !7
  %30 = icmp eq i64 %26, %29
  br i1 %30, label %31, label %34

31:                                               ; preds = %19
  %32 = load ptr, ptr %4, align 8, !tbaa !3
  %33 = getelementptr inbounds nuw %"struct.boost::wave::cpplexer::re2clex::tag_aq_queuetype", ptr %32, i32 0, i32 1
  store i64 0, ptr %33, align 8, !tbaa !12
  br label %34

34:                                               ; preds = %31, %19
  %35 = load i64, ptr %5, align 8, !tbaa !10
  %36 = load ptr, ptr %4, align 8, !tbaa !3
  %37 = getelementptr inbounds nuw %"struct.boost::wave::cpplexer::re2clex::tag_aq_queuetype", ptr %36, i32 0, i32 4
  %38 = load ptr, ptr %37, align 8, !tbaa !11
  %39 = load ptr, ptr %4, align 8, !tbaa !3
  %40 = getelementptr inbounds nuw %"struct.boost::wave::cpplexer::re2clex::tag_aq_queuetype", ptr %39, i32 0, i32 1
  %41 = load i64, ptr %40, align 8, !tbaa !12
  %42 = getelementptr inbounds nuw i64, ptr %38, i64 %41
  store i64 %35, ptr %42, align 8, !tbaa !10
  %43 = load ptr, ptr %4, align 8, !tbaa !3
  %44 = getelementptr inbounds nuw %"struct.boost::wave::cpplexer::re2clex::tag_aq_queuetype", ptr %43, i32 0, i32 2
  %45 = load i64, ptr %44, align 8, !tbaa !14
  %46 = add i64 %45, 1
  store i64 %46, ptr %44, align 8, !tbaa !14
  store i32 1, ptr %3, align 4
  br label %47

47:                                               ; preds = %34, %17
  %48 = load i32, ptr %3, align 4
  ret i32 %48
}