; Function Attrs: mustprogress nounwind willreturn uwtable
define noundef range(i32 0, 2) i32 @_ZN5boost4wave8cpplexer7re2clex10aq_enqueueEPNS2_16tag_aq_queuetypeEm(ptr nocapture noundef %0, i64 noundef %1) local_unnamed_addr #0 {
  %3 = getelementptr inbounds nuw i8, ptr %0, i64 16
  %4 = load i64, ptr %3, align 8, !tbaa !12
  %5 = getelementptr inbounds nuw i8, ptr %0, i64 24
  %6 = load i64, ptr %5, align 8, !tbaa !3
  %7 = icmp eq i64 %4, %6
  br i1 %7, label %8, label %._crit_edge

._crit_edge:                                      ; preds = %2
  %.phi.trans.insert = getelementptr inbounds nuw i8, ptr %0, i64 8
  %.pre = load i64, ptr %.phi.trans.insert, align 8, !tbaa !10
  %.phi.trans.insert13 = getelementptr inbounds nuw i8, ptr %0, i64 32
  %.pre14 = load ptr, ptr %.phi.trans.insert13, align 8, !tbaa !9
  br label %25

8:                                                ; preds = %2
  %9 = shl i64 %4, 1
  %10 = getelementptr inbounds nuw i8, ptr %0, i64 32
  %11 = load ptr, ptr %10, align 8, !tbaa !9
  %12 = shl i64 %4, 4
  %13 = tail call ptr @realloc(ptr noundef %11, i64 noundef %12) #8
  %.not.i = icmp eq ptr %13, null
  br i1 %.not.i, label %_ZN5boost4wave8cpplexer7re2clex7aq_growEPNS2_16tag_aq_queuetypeE.exit.thread, label %14

14:                                               ; preds = %8
  store ptr %13, ptr %10, align 8, !tbaa !9
  %15 = getelementptr inbounds nuw i8, ptr %0, i64 8
  %16 = load i64, ptr %15, align 8, !tbaa !10
  %17 = load i64, ptr %0, align 8, !tbaa !11
  %.not18.i = icmp ugt i64 %16, %17
  br i1 %.not18.i, label %_ZN5boost4wave8cpplexer7re2clex7aq_growEPNS2_16tag_aq_queuetypeE.exit, label %18

18:                                               ; preds = %14
  %19 = load i64, ptr %5, align 8, !tbaa !3
  %20 = getelementptr inbounds nuw i64, ptr %13, i64 %19
  %21 = shl i64 %16, 3
  %22 = add i64 %21, 8
  tail call void @llvm.memcpy.p0.p0.i64(ptr nonnull align 8 %20, ptr nonnull align 8 %13, i64 %22, i1 false)
  %23 = add i64 %19, %16
  br label %_ZN5boost4wave8cpplexer7re2clex7aq_growEPNS2_16tag_aq_queuetypeE.exit

_ZN5boost4wave8cpplexer7re2clex7aq_growEPNS2_16tag_aq_queuetypeE.exit: ; preds = %14, %18
  %24 = phi i64 [ %16, %14 ], [ %23, %18 ]
  store i64 %9, ptr %5, align 8, !tbaa !3
  br label %25

25:                                               ; preds = %._crit_edge, %_ZN5boost4wave8cpplexer7re2clex7aq_growEPNS2_16tag_aq_queuetypeE.exit
  %26 = phi ptr [ %.pre14, %._crit_edge ], [ %13, %_ZN5boost4wave8cpplexer7re2clex7aq_growEPNS2_16tag_aq_queuetypeE.exit ]
  %27 = phi i64 [ %6, %._crit_edge ], [ %9, %_ZN5boost4wave8cpplexer7re2clex7aq_growEPNS2_16tag_aq_queuetypeE.exit ]
  %28 = phi i64 [ %.pre, %._crit_edge ], [ %24, %_ZN5boost4wave8cpplexer7re2clex7aq_growEPNS2_16tag_aq_queuetypeE.exit ]
  %29 = getelementptr inbounds nuw i8, ptr %0, i64 8
  %30 = add i64 %28, 1
  %31 = icmp eq i64 %30, %27
  %spec.store.select = select i1 %31, i64 0, i64 %30
  store i64 %spec.store.select, ptr %29, align 8
  %32 = getelementptr inbounds nuw i64, ptr %26, i64 %spec.store.select
  store i64 %1, ptr %32, align 8, !tbaa !13
  %33 = load i64, ptr %3, align 8, !tbaa !12
  %34 = add i64 %33, 1
  store i64 %34, ptr %3, align 8, !tbaa !12
  br label %_ZN5boost4wave8cpplexer7re2clex7aq_growEPNS2_16tag_aq_queuetypeE.exit.thread

_ZN5boost4wave8cpplexer7re2clex7aq_growEPNS2_16tag_aq_queuetypeE.exit.thread: ; preds = %8, %25
  %.0 = phi i32 [ 1, %25 ], [ 0, %8 ]
  ret i32 %.0
}